; Function Attrs: mustprogress nofree norecurse nosync nounwind willreturn memory(read, inaccessiblemem: none) uwtable
define hidden noundef nonnull align 8 dereferenceable(8) ptr @_ZN3euf6egraph9enodes_ofEP9func_decl(ptr noundef nonnull readonly align 8 captures(ret: address, provenance) dereferenceable(536) %0, ptr noundef readonly captures(none) %1) local_unnamed_addr #5 align 2 {
  %3 = load i32, ptr %1, align 4, !tbaa !117
  %4 = xor i32 %3, -2147483648
  %5 = getelementptr inbounds nuw i8, ptr %0, i64 216
  %6 = load ptr, ptr %5, align 8, !tbaa !118
  %7 = icmp eq ptr %6, null
  br i1 %7, label %_ZNK6vectorI10ptr_vectorIN3euf5enodeEELb1EjE4sizeEv.exit.thread, label %_ZNK6vectorI10ptr_vectorIN3euf5enodeEELb1EjE4sizeEv.exit

_ZNK6vectorI10ptr_vectorIN3euf5enodeEELb1EjE4sizeEv.exit: ; preds = %2
  %8 = getelementptr inbounds i8, ptr %6, i64 -4
  %9 = load i32, ptr %8, align 4, !tbaa !113
  %10 = icmp ult i32 %4, %9
  br i1 %10, label %11, label %_ZNK6vectorI10ptr_vectorIN3euf5enodeEELb1EjE4sizeEv.exit.thread

11:                                               ; preds = %_ZNK6vectorI10ptr_vectorIN3euf5enodeEELb1EjE4sizeEv.exit
  %12 = zext i32 %4 to i64
  %13 = getelementptr inbounds nuw %class.ptr_vector.7, ptr %6, i64 %12
  br label %15

_ZNK6vectorI10ptr_vectorIN3euf5enodeEELb1EjE4sizeEv.exit.thread: ; preds = %2, %_ZNK6vectorI10ptr_vectorIN3euf5enodeEELb1EjE4sizeEv.exit
  %14 = getelementptr inbounds nuw i8, ptr %0, i64 224
  br label %15

15:                                               ; preds = %_ZNK6vectorI10ptr_vectorIN3euf5enodeEELb1EjE4sizeEv.exit.thread, %11
  %.0 = phi ptr [ %13, %11 ], [ %14, %_ZNK6vectorI10ptr_vectorIN3euf5enodeEELb1EjE4sizeEv.exit.thread ]
  ret ptr %.0
}